
OpdrachtB3.elf:     file format elf32-avr

Sections:
Idx Name          Size      VMA       LMA       File off  Algn
  0 .data         00000000  00800100  00800100  00000144  2**0
                  ALLOC, LOAD, DATA
  1 .text         000000a4  00000000  00000000  00000054  2**1
                  CONTENTS, ALLOC, LOAD, READONLY, CODE
  2 .comment      0000002f  00000000  00000000  00000144  2**0
                  CONTENTS, READONLY
  3 .debug_aranges 00000028  00000000  00000000  00000173  2**0
                  CONTENTS, READONLY, DEBUGGING
  4 .debug_info   00000b49  00000000  00000000  0000019b  2**0
                  CONTENTS, READONLY, DEBUGGING
  5 .debug_abbrev 00000825  00000000  00000000  00000ce4  2**0
                  CONTENTS, READONLY, DEBUGGING
  6 .debug_line   00000296  00000000  00000000  00001509  2**0
                  CONTENTS, READONLY, DEBUGGING
  7 .debug_frame  00000034  00000000  00000000  000017a0  2**2
                  CONTENTS, READONLY, DEBUGGING
  8 .debug_str    0000027d  00000000  00000000  000017d4  2**0
                  CONTENTS, READONLY, DEBUGGING
  9 .debug_loc    0000006a  00000000  00000000  00001a51  2**0
                  CONTENTS, READONLY, DEBUGGING
 10 .debug_ranges 00000018  00000000  00000000  00001abb  2**0
                  CONTENTS, READONLY, DEBUGGING
 11 .text         00000004  000000ec  000000ec  00000140  2**1
                  CONTENTS, ALLOC, LOAD, READONLY, CODE
 12 .note.gnu.avr.deviceinfo 0000003c  00000000  00000000  00001ad4  2**2
                  CONTENTS, READONLY, DEBUGGING
 13 .text.wait    0000001e  000000ce  000000ce  00000122  2**1
                  CONTENTS, ALLOC, LOAD, READONLY, CODE
 14 .text.main    0000002a  000000a4  000000a4  000000f8  2**1
                  CONTENTS, ALLOC, LOAD, READONLY, CODE

Disassembly of section .text:

00000000 <__vectors>:
   0:	0c 94 46 00 	jmp	0x8c	; 0x8c <__ctors_end>
   4:	0c 94 76 00 	jmp	0xec	; 0xec <__bad_interrupt>
   8:	0c 94 76 00 	jmp	0xec	; 0xec <__bad_interrupt>
   c:	0c 94 76 00 	jmp	0xec	; 0xec <__bad_interrupt>
  10:	0c 94 76 00 	jmp	0xec	; 0xec <__bad_interrupt>
  14:	0c 94 76 00 	jmp	0xec	; 0xec <__bad_interrupt>
  18:	0c 94 76 00 	jmp	0xec	; 0xec <__bad_interrupt>
  1c:	0c 94 76 00 	jmp	0xec	; 0xec <__bad_interrupt>
  20:	0c 94 76 00 	jmp	0xec	; 0xec <__bad_interrupt>
  24:	0c 94 76 00 	jmp	0xec	; 0xec <__bad_interrupt>
  28:	0c 94 76 00 	jmp	0xec	; 0xec <__bad_interrupt>
  2c:	0c 94 76 00 	jmp	0xec	; 0xec <__bad_interrupt>
  30:	0c 94 76 00 	jmp	0xec	; 0xec <__bad_interrupt>
  34:	0c 94 76 00 	jmp	0xec	; 0xec <__bad_interrupt>
  38:	0c 94 76 00 	jmp	0xec	; 0xec <__bad_interrupt>
  3c:	0c 94 76 00 	jmp	0xec	; 0xec <__bad_interrupt>
  40:	0c 94 76 00 	jmp	0xec	; 0xec <__bad_interrupt>
  44:	0c 94 76 00 	jmp	0xec	; 0xec <__bad_interrupt>
  48:	0c 94 76 00 	jmp	0xec	; 0xec <__bad_interrupt>
  4c:	0c 94 76 00 	jmp	0xec	; 0xec <__bad_interrupt>
  50:	0c 94 76 00 	jmp	0xec	; 0xec <__bad_interrupt>
  54:	0c 94 76 00 	jmp	0xec	; 0xec <__bad_interrupt>
  58:	0c 94 76 00 	jmp	0xec	; 0xec <__bad_interrupt>
  5c:	0c 94 76 00 	jmp	0xec	; 0xec <__bad_interrupt>
  60:	0c 94 76 00 	jmp	0xec	; 0xec <__bad_interrupt>
  64:	0c 94 76 00 	jmp	0xec	; 0xec <__bad_interrupt>
  68:	0c 94 76 00 	jmp	0xec	; 0xec <__bad_interrupt>
  6c:	0c 94 76 00 	jmp	0xec	; 0xec <__bad_interrupt>
  70:	0c 94 76 00 	jmp	0xec	; 0xec <__bad_interrupt>
  74:	0c 94 76 00 	jmp	0xec	; 0xec <__bad_interrupt>
  78:	0c 94 76 00 	jmp	0xec	; 0xec <__bad_interrupt>
  7c:	0c 94 76 00 	jmp	0xec	; 0xec <__bad_interrupt>
  80:	0c 94 76 00 	jmp	0xec	; 0xec <__bad_interrupt>
  84:	0c 94 76 00 	jmp	0xec	; 0xec <__bad_interrupt>
  88:	0c 94 76 00 	jmp	0xec	; 0xec <__bad_interrupt>

0000008c <__ctors_end>:
  8c:	11 24       	eor	r1, r1
  8e:	1f be       	out	0x3f, r1	; 63
  90:	cf ef       	ldi	r28, 0xFF	; 255
  92:	d0 e1       	ldi	r29, 0x10	; 16
  94:	de bf       	out	0x3e, r29	; 62
  96:	cd bf       	out	0x3d, r28	; 61
  98:	0e 94 52 00 	call	0xa4	; 0xa4 <_etext>
  9c:	0c 94 50 00 	jmp	0xa0	; 0xa0 <_exit>

000000a0 <_exit>:
  a0:	f8 94       	cli

000000a2 <__stop_program>:
  a2:	ff cf       	rjmp	.-2      	; 0xa2 <__stop_program>

Disassembly of section .text:

000000ec <__bad_interrupt>:
  ec:	0c 94 00 00 	jmp	0	; 0x0 <__TEXT_REGION_ORIGIN__>

Disassembly of section .text.wait:

000000ce <wait>:

#include <util/delay.h>

void wait (int ms)
{
	for (int i = 0; i < ms; i++)
  ce:	20 e0       	ldi	r18, 0x00	; 0
  d0:	30 e0       	ldi	r19, 0x00	; 0
  d2:	08 c0       	rjmp	.+16     	; 0xe4 <wait+0x16>
	#else
		//round up by default
		__ticks_dc = (uint32_t)(ceil(fabs(__tmp)));
	#endif

	__builtin_avr_delay_cycles(__ticks_dc);
  d4:	ef ec       	ldi	r30, 0xCF	; 207
  d6:	f7 e0       	ldi	r31, 0x07	; 7
  d8:	31 97       	sbiw	r30, 0x01	; 1
  da:	f1 f7       	brne	.-4      	; 0xd8 <wait+0xa>
  dc:	00 c0       	rjmp	.+0      	; 0xde <wait+0x10>
  de:	00 00       	nop
  e0:	2f 5f       	subi	r18, 0xFF	; 255
  e2:	3f 4f       	sbci	r19, 0xFF	; 255
  e4:	28 17       	cp	r18, r24
  e6:	39 07       	cpc	r19, r25
  e8:	ac f3       	brlt	.-22     	; 0xd4 <wait+0x6>
	{
		_delay_ms(1);
	}
}
  ea:	08 95       	ret

Disassembly of section .text.main:

000000a4 <main>:

int main(void)
{
	DDRD = 0x80; // Pin 7 is output
  a4:	80 e8       	ldi	r24, 0x80	; 128
  a6:	81 bb       	out	0x11, r24	; 17
	PORTC = 0xFE; // Set PORTC pin 0 to input
  a8:	8e ef       	ldi	r24, 0xFE	; 254
  aa:	85 bb       	out	0x15, r24	; 21
    while(1)
    {
        if (PINC == 0b1)
  ac:	83 b3       	in	r24, 0x13	; 19
  ae:	81 30       	cpi	r24, 0x01	; 1
  b0:	61 f4       	brne	.+24     	; 0xca <main+0x26>
        {
			PORTD = 0b00000000; // Turn of all the pins.
  b2:	12 ba       	out	0x12, r1	; 18
			wait(500);
  b4:	84 ef       	ldi	r24, 0xF4	; 244
  b6:	91 e0       	ldi	r25, 0x01	; 1
  b8:	0e 94 67 00 	call	0xce	; 0xce <wait>
			PORTD = 0b10000000; // Turn on pin 7
  bc:	80 e8       	ldi	r24, 0x80	; 128
  be:	82 bb       	out	0x12, r24	; 18
			wait(500);
  c0:	84 ef       	ldi	r24, 0xF4	; 244
  c2:	91 e0       	ldi	r25, 0x01	; 1
  c4:	0e 94 67 00 	call	0xce	; 0xce <wait>
  c8:	f1 cf       	rjmp	.-30     	; 0xac <main+0x8>
        } else {
			PORTD = 0b00000000; // Turn of the led if button is not pressed
  ca:	12 ba       	out	0x12, r1	; 18
  cc:	ef cf       	rjmp	.-34     	; 0xac <main+0x8>
